target datalayout = "e-m:e-p270:32:32-p271:32:32-p272:64:64-i64:64-i128:128-f80:128-n8:16:32:64-S128"
target triple = "x86_64-pc-linux-gnu"

%struct.pmi2_job_info = type { %struct.slurm_step_id_msg, i32, i32, i32, i32, i32, ptr, i32, i32, ptr, ptr, ptr, ptr, ptr, ptr, ptr, ptr }
%struct.slurm_step_id_msg = type { i64, i32, i32, i32 }
%struct.pmi2_tree_info = type { ptr, ptr, i32, i32, i32, i32, i16, ptr, ptr }
%struct.spawn_resp = type { i32, i32, ptr, i16, i32, ptr }
%struct.MPIR_PROCDESC = type { ptr, ptr, i32 }

@job_info = dso_local global %struct.pmi2_job_info zeroinitializer, align 8
@tree_info = dso_local global %struct.pmi2_tree_info zeroinitializer, align 8

; Function Attrs: inlinehint nounwind uwtable
define internal i32 @_tasks_launched() #9 {
  %1 = alloca i32, align 4
  %2 = alloca i32, align 4
  %3 = alloca i32, align 4
  %4 = alloca i32, align 4
  call void @llvm.lifetime.start.p0(i64 4, ptr %2) #10
  call void @llvm.lifetime.start.p0(i64 4, ptr %3) #10
  store i32 1, ptr %3, align 4
  %5 = load ptr, ptr getelementptr inbounds nuw (%struct.pmi2_job_info, ptr @job_info, i32 0, i32 14), align 8
  %6 = icmp eq ptr %5, null
  br i1 %6, label %7, label %8

7:                                                ; preds = %0
  store i32 1, ptr %1, align 4
  store i32 1, ptr %4, align 4
  br label %28

8:                                                ; preds = %0
  store i32 0, ptr %2, align 4
  br label %9

9:                                                ; preds = %23, %8
  %10 = load i32, ptr %2, align 4
  %11 = load i32, ptr getelementptr inbounds nuw (%struct.pmi2_job_info, ptr @job_info, i32 0, i32 4), align 4
  %12 = icmp ult i32 %10, %11
  br i1 %12, label %13, label %26

13:                                               ; preds = %9
  %14 = load ptr, ptr getelementptr inbounds nuw (%struct.pmi2_job_info, ptr @job_info, i32 0, i32 14), align 8
  %15 = load i32, ptr %2, align 4
  %16 = sext i32 %15 to i64
  %17 = getelementptr inbounds %struct.MPIR_PROCDESC, ptr %14, i64 %16
  %18 = getelementptr inbounds nuw %struct.MPIR_PROCDESC, ptr %17, i32 0, i32 2
  %19 = load i32, ptr %18, align 8
  %20 = icmp eq i32 %19, 0
  br i1 %20, label %21, label %22

21:                                               ; preds = %13
  store i32 0, ptr %3, align 4
  br label %26

22:                                               ; preds = %13
  br label %23

23:                                               ; preds = %22
  %24 = load i32, ptr %2, align 4
  %25 = add nsw i32 %24, 1
  store i32 %25, ptr %2, align 4
  br label %9, !llvm.loop !29

26:                                               ; preds = %21, %9
  %27 = load i32, ptr %3, align 4
  store i32 %27, ptr %1, align 4
  store i32 1, ptr %4, align 4
  br label %28

28:                                               ; preds = %26, %7
  call void @llvm.lifetime.end.p0(i64 4, ptr %3) #10
  call void @llvm.lifetime.end.p0(i64 4, ptr %2) #10
  %29 = load i32, ptr %1, align 4
  ret i32 %29
}

; Function Attrs: nounwind uwtable
define internal ptr @_task_launch_detection(ptr noundef %0) #0 {
  %2 = alloca ptr, align 8
  %3 = alloca ptr, align 8
  %4 = alloca i64, align 8
  %5 = alloca i32, align 4
  store ptr %0, ptr %2, align 8
  call void @llvm.lifetime.start.p0(i64 8, ptr %3) #10
  call void @llvm.lifetime.start.p0(i64 8, ptr %4) #10
  call void @llvm.lifetime.start.p0(i64 4, ptr %5) #10
  store i32 0, ptr %5, align 4
  %6 = call i64 @time(ptr noundef null) #10
  store i64 %6, ptr %4, align 8
  br label %7

7:                                                ; preds = %17, %1
  %8 = call i32 @_tasks_launched()
  %9 = icmp eq i32 %8, 0
  br i1 %9, label %10, label %18

10:                                               ; preds = %7
  %11 = call i32 @usleep(i32 noundef 50000)
  %12 = call i64 @time(ptr noundef null) #10
  %13 = load i64, ptr %4, align 8
  %14 = sub nsw i64 %12, %13
  %15 = icmp sgt i64 %14, 600
  br i1 %15, label %16, label %17

16:                                               ; preds = %10
  store i32 1, ptr %5, align 4
  br label %18

17:                                               ; preds = %10
  br label %7, !llvm.loop !17

18:                                               ; preds = %16, %7
  %19 = call ptr @spawn_resp_new()
  store ptr %19, ptr %3, align 8
  %20 = load i32, ptr getelementptr inbounds nuw (%struct.pmi2_job_info, ptr @job_info, i32 0, i32 7), align 8
  %21 = load ptr, ptr %3, align 8
  %22 = getelementptr inbounds nuw %struct.spawn_resp, ptr %21, i32 0, i32 0
  store i32 %20, ptr %22, align 8
  %23 = load ptr, ptr getelementptr inbounds nuw (%struct.pmi2_job_info, ptr @job_info, i32 0, i32 11), align 8
  %24 = call ptr @slurm_xstrdup(ptr noundef %23)
  %25 = load ptr, ptr %3, align 8
  %26 = getelementptr inbounds nuw %struct.spawn_resp, ptr %25, i32 0, i32 2
  store ptr %24, ptr %26, align 8
  %27 = load ptr, ptr %3, align 8
  %28 = getelementptr inbounds nuw %struct.spawn_resp, ptr %27, i32 0, i32 4
  store i32 0, ptr %28, align 4
  %29 = load i32, ptr %5, align 4
  %30 = load ptr, ptr %3, align 8
  %31 = getelementptr inbounds nuw %struct.spawn_resp, ptr %30, i32 0, i32 1
  store i32 %29, ptr %31, align 4
  %32 = load i16, ptr getelementptr inbounds nuw (%struct.pmi2_tree_info, ptr @tree_info, i32 0, i32 6), align 8
  %33 = load ptr, ptr %3, align 8
  %34 = getelementptr inbounds nuw %struct.spawn_resp, ptr %33, i32 0, i32 3
  store i16 %32, ptr %34, align 8
  %35 = load ptr, ptr %3, align 8
  %36 = call i32 @spawn_resp_send_to_srun(ptr noundef %35)
  %37 = load ptr, ptr %3, align 8
  call void @spawn_resp_free(ptr noundef %37)
  call void @llvm.lifetime.end.p0(i64 4, ptr %5) #10
  call void @llvm.lifetime.end.p0(i64 8, ptr %4) #10
  call void @llvm.lifetime.end.p0(i64 8, ptr %3) #10
  ret ptr null
}